; Function Attrs: nounwind uwtable
define internal range(i32 -1, 2) i32 @_sort_stats_by_name(ptr noundef readonly captures(none) %0, ptr noundef readonly captures(none) %1) #0 {
  %3 = load ptr, ptr %0, align 8
  %4 = getelementptr inbounds nuw i8, ptr %3, i64 16
  %5 = load ptr, ptr %4, align 8
  %.not = icmp eq ptr %5, null
  br i1 %.not, label %_sort_pids_by_name.exit, label %6

6:                                                ; preds = %2
  %7 = load ptr, ptr %1, align 8
  %8 = getelementptr inbounds nuw i8, ptr %7, i64 16
  %9 = load ptr, ptr %8, align 8
  %.not6 = icmp eq ptr %9, null
  br i1 %.not6, label %_sort_pids_by_name.exit, label %10

10:                                               ; preds = %6
  %11 = load ptr, ptr %5, align 8
  %.not.i = icmp eq ptr %11, null
  br i1 %.not.i, label %_sort_pids_by_name.exit, label %12

12:                                               ; preds = %10
  %13 = load ptr, ptr %9, align 8
  %.not11.i = icmp eq ptr %13, null
  br i1 %.not11.i, label %_sort_pids_by_name.exit, label %14

14:                                               ; preds = %12
  %15 = tail call i32 @xstrcmp(ptr noundef nonnull %11, ptr noundef nonnull %13) #11
  %16 = icmp sgt i32 %15, 0
  br i1 %16, label %_sort_pids_by_name.exit, label %17

17:                                               ; preds = %14
  %.not12.i = icmp ne i32 %15, 0
  %..i = sext i1 %.not12.i to i32
  br label %_sort_pids_by_name.exit

_sort_pids_by_name.exit:                          ; preds = %17, %14, %12, %10, %2, %6
  %.0 = phi i32 [ 0, %6 ], [ 0, %2 ], [ 0, %12 ], [ 0, %10 ], [ 1, %14 ], [ %..i, %17 ]
  ret i32 %.0
}